#include <math.h>
#include <stdio.h>
#include <stdlib.h>
#include <string.h>
#include <iostream>
using namespace std;

/*
 * h35.cpp
 * function:????
 * Created on: 2012-11-30
 * Author: sear
 */
//m????n???????????n???n??m,????n,???n??1
int f(int m, int n) {			//m???,n????????
	int i, sum = 0;				//i?????,sum???????
	if (n == 1)
		return 1;				//???????1???1
	for (sum = 0, i = m; i <= n; i++)//?????????????????m???????m???
		if (n % i == 0)
			sum += f(i, n / i);//?n???????????n??i????
	return sum;					//??sum???????
}
int main() {
	int i, n, k;				//i?????,n????????,k?????????
	for (i = 0, cin >> n; i < n; i++) {
		cin >> k;				//???????
		cout << f(2, k) << endl;//???????
	}
	return 0;				//????
}
